; Function Attrs: mustprogress uwtable
define noundef i32 @_ZNK6casadi7Reshape4evalEPPKdPPdPxS4_(ptr noundef nonnull align 8 dereferenceable(64) %0, ptr noundef readonly captures(none) %1, ptr noundef readonly captures(none) %2, ptr readnone captures(none) %3, ptr readnone captures(none) %4) unnamed_addr #3 align 2 {
  %6 = load ptr, ptr %1, align 8, !tbaa !28
  %7 = load ptr, ptr %2, align 8, !tbaa !28
  %.not.i = icmp eq ptr %6, %7
  br i1 %.not.i, label %_ZNK6casadi7Reshape8eval_genIdEEiPPKT_PPS2_PxS6_.exit, label %8

8:                                                ; preds = %5
  %9 = load ptr, ptr %0, align 8, !tbaa !3
  %10 = getelementptr inbounds nuw i8, ptr %9, i64 392
  %11 = load ptr, ptr %10, align 8
  %12 = tail call noundef nonnull align 8 dereferenceable(8) ptr %11(ptr noundef nonnull align 8 dereferenceable(64) %0, i64 noundef 0)
  %13 = tail call noundef i64 @_ZNK6casadi8Sparsity3nnzEv(ptr noundef nonnull align 8 dereferenceable(8) %12)
  %.not.i.i.i.i.i.i = icmp eq i64 %13, 0
  br i1 %.not.i.i.i.i.i.i, label %_ZNK6casadi7Reshape8eval_genIdEEiPPKT_PPS2_PxS6_.exit, label %14

14:                                               ; preds = %8
  %.idx.i = shl nsw i64 %13, 3
  %15 = load ptr, ptr %2, align 8, !tbaa !28
  tail call void @llvm.memmove.p0.p0.i64(ptr align 8 %15, ptr align 8 %6, i64 %.idx.i, i1 false)
  br label %_ZNK6casadi7Reshape8eval_genIdEEiPPKT_PPS2_PxS6_.exit

_ZNK6casadi7Reshape8eval_genIdEEiPPKT_PPS2_PxS6_.exit: ; preds = %5, %8, %14
  ret i32 0
}